ccopy_reg
_reconstructor
p1
(csklearn.linear_model.logistic
LogisticRegression
p2
c__builtin__
object
p3
NtRp4
(dp5
S'warm_start'
p6
I00
sS'C'
I1
sS'n_jobs'
p7
I1
sS'verbose'
p8
I0
sS'fit_intercept'
p9
I01
sS'solver'
p10
S'liblinear'
p11
sS'classes_'
p12
cnumpy.core.multiarray
_reconstruct
p13
(cnumpy
ndarray
p14
(I0
tS'b'
tRp15
(I1
(I2
tcnumpy
dtype
p16
(S'i8'
I0
I1
tRp17
(I3
S'<'
NNNI-1
I-1
I0
tbI00
S'\x00\x00\x00\x00\x00\x00\x00\x00\x01\x00\x00\x00\x00\x00\x00\x00'
tbsS'n_iter_'
p18
g13
(g14
(I0
tS'b'
tRp19
(I1
(I1
tg16
(S'i4'
I0
I1
tRp20
(I3
S'<'
NNNI-1
I-1
I0
tbI00
S'\t\x00\x00\x00'
tbsS'intercept_scaling'
p21
I1
sS'penalty'
p22
S'l2'
p23
sS'multi_class'
p24
S'ovr'
p25
sS'random_state'
p26
NsS'_sklearn_version'
p27
S'0.19.1'
p28
sS'dual'
p29
I00
sS'tol'
p30
F0.0001
sS'coef_'
p31
g13
(g14
(I0
tS'b'
tRp32
(I1
(I1
I3
tg16
(S'f8'
I0
I1
tRp33
(I3
S'<'
NNNI-1
I-1
I0
tbI00
S'\xf3\xf1LO\x15\x9c\x03\xc0\xc8Gw\x9d\x15\x86$@\x82ohK\xdf\x8e\x01\xc0'
tbsS'intercept_'
p34
g13
(g14
(I0
tS'b'
tRp35
(I1
(I1
tg33
I00
S'\xe96\x01\xb7\xad\xdc\x14\xc0'
tbsS'max_iter'
p36
I100
sS'class_weight'
p37
S'balanced'
p38
sb.